; Function Attrs: nounwind uwtable
define zeroext i1 @H5AC_cache_image_pending(ptr noundef readonly captures(none) %0) local_unnamed_addr #4 {
  %2 = load i8, ptr @H5AC_init_g, align 1, !tbaa !3, !range !7, !noundef !8
  %3 = trunc nuw i8 %2 to i1
  %4 = load i8, ptr @H5_libterm_g, align 1, !range !7
  %5 = trunc nuw i8 %4 to i1
  %6 = xor i1 %5, true
  %7 = select i1 %3, i1 true, i1 %6
  br i1 %7, label %8, label %14, !prof !9

8:                                                ; preds = %1
  %9 = getelementptr inbounds nuw i8, ptr %0, i64 16
  %10 = load ptr, ptr %9, align 8, !tbaa !11
  %11 = getelementptr inbounds nuw i8, ptr %10, i64 112
  %12 = load ptr, ptr %11, align 8, !tbaa !20
  %13 = tail call zeroext i1 @H5C_cache_image_pending(ptr noundef %12) #8
  br label %14

14:                                               ; preds = %8, %1
  %.0 = phi i1 [ %13, %8 ], [ false, %1 ]
  ret i1 %.0
}